target datalayout = "e-m:e-p270:32:32-p271:32:32-p272:64:64-i64:64-i128:128-f80:128-n8:16:32:64-S128"
target triple = "x86_64-pc-linux-gnu"

@.str = private unnamed_addr constant [16 x i8] c"%10.3f  %10.5f\0A\00", align 1
@.str.1 = private unnamed_addr constant [3 x i8] c"&\0A\00", align 1

; Function Attrs: mustprogress nounwind uwtable
define noundef float @_Z19print_and_integrateP8_IO_FILEifPKfS2_i(ptr noundef %0, i32 noundef %1, float noundef %2, ptr noundef %3, ptr noundef %4, i32 noundef %5) #0 {
  %7 = alloca ptr, align 8
  %8 = alloca i32, align 4
  %9 = alloca float, align 4
  %10 = alloca ptr, align 8
  %11 = alloca ptr, align 8
  %12 = alloca i32, align 4
  %13 = alloca float, align 4
  %14 = alloca float, align 4
  %15 = alloca i32, align 4
  store ptr %0, ptr %7, align 8
  store i32 %1, ptr %8, align 4
  store float %2, ptr %9, align 4
  store ptr %3, ptr %10, align 8
  store ptr %4, ptr %11, align 8
  store i32 %5, ptr %12, align 4
  store float 0.000000e+00, ptr %14, align 4
  store i32 0, ptr %15, align 4
  br label %16

16:                                               ; preds = %62, %6
  %17 = load i32, ptr %15, align 4
  %18 = load i32, ptr %8, align 4
  %19 = icmp slt i32 %17, %18
  br i1 %19, label %20, label %65

20:                                               ; preds = %16
  %21 = load ptr, ptr %10, align 8
  %22 = load i32, ptr %15, align 4
  %23 = sext i32 %22 to i64
  %24 = getelementptr inbounds float, ptr %21, i64 %23
  %25 = load float, ptr %24, align 4
  store float %25, ptr %13, align 4
  %26 = load ptr, ptr %7, align 8
  %27 = icmp ne ptr %26, null
  br i1 %27, label %28, label %46

28:                                               ; preds = %20
  %29 = load i32, ptr %12, align 4
  %30 = icmp eq i32 %29, 0
  br i1 %30, label %36, label %31

31:                                               ; preds = %28
  %32 = load i32, ptr %15, align 4
  %33 = load i32, ptr %12, align 4
  %34 = srem i32 %32, %33
  %35 = icmp eq i32 %34, 0
  br i1 %35, label %36, label %46

36:                                               ; preds = %31, %28
  %37 = load ptr, ptr %7, align 8
  %38 = load i32, ptr %15, align 4
  %39 = sitofp i32 %38 to float
  %40 = load float, ptr %9, align 4
  %41 = fmul float %39, %40
  %42 = fpext float %41 to double
  %43 = load float, ptr %13, align 4
  %44 = fpext float %43 to double
  %45 = call i32 (ptr, ptr, ...) @fprintf(ptr noundef %37, ptr noundef @.str, double noundef %42, double noundef %44) #8
  br label %46

46:                                               ; preds = %36, %31, %20
  %47 = load i32, ptr %15, align 4
  %48 = icmp sgt i32 %47, 0
  br i1 %48, label %49, label %61

49:                                               ; preds = %46
  %50 = load float, ptr %9, align 4
  %51 = load float, ptr %13, align 4
  %52 = load ptr, ptr %10, align 8
  %53 = load i32, ptr %15, align 4
  %54 = sub nsw i32 %53, 1
  %55 = sext i32 %54 to i64
  %56 = getelementptr inbounds float, ptr %52, i64 %55
  %57 = load float, ptr %56, align 4
  %58 = fadd float %51, %57
  %59 = load float, ptr %14, align 4
  %60 = call float @llvm.fmuladd.f32(float %50, float %58, float %59)
  store float %60, ptr %14, align 4
  br label %61

61:                                               ; preds = %49, %46
  br label %62

62:                                               ; preds = %61
  %63 = load i32, ptr %15, align 4
  %64 = add nsw i32 %63, 1
  store i32 %64, ptr %15, align 4
  br label %16, !llvm.loop !5

65:                                               ; preds = %16
  %66 = load ptr, ptr %7, align 8
  %67 = icmp ne ptr %66, null
  br i1 %67, label %68, label %108

68:                                               ; preds = %65
  %69 = load ptr, ptr %7, align 8
  %70 = call i32 (ptr, ptr, ...) @fprintf(ptr noundef %69, ptr noundef @.str.1) #8
  %71 = load ptr, ptr %11, align 8
  %72 = icmp ne ptr %71, null
  br i1 %72, label %73, label %107

73:                                               ; preds = %68
  store i32 0, ptr %15, align 4
  br label %74

74:                                               ; preds = %101, %73
  %75 = load i32, ptr %15, align 4
  %76 = load i32, ptr %8, align 4
  %77 = icmp slt i32 %75, %76
  br i1 %77, label %78, label %104

78:                                               ; preds = %74
  %79 = load i32, ptr %12, align 4
  %80 = icmp eq i32 %79, 0
  br i1 %80, label %86, label %81

81:                                               ; preds = %78
  %82 = load i32, ptr %15, align 4
  %83 = load i32, ptr %12, align 4
  %84 = srem i32 %82, %83
  %85 = icmp eq i32 %84, 0
  br i1 %85, label %86, label %100

86:                                               ; preds = %81, %78
  %87 = load ptr, ptr %7, align 8
  %88 = load i32, ptr %15, align 4
  %89 = sitofp i32 %88 to float
  %90 = load float, ptr %9, align 4
  %91 = fmul float %89, %90
  %92 = fpext float %91 to double
  %93 = load ptr, ptr %11, align 8
  %94 = load i32, ptr %15, align 4
  %95 = sext i32 %94 to i64
  %96 = getelementptr inbounds float, ptr %93, i64 %95
  %97 = load float, ptr %96, align 4
  %98 = fpext float %97 to double
  %99 = call i32 (ptr, ptr, ...) @fprintf(ptr noundef %87, ptr noundef @.str, double noundef %92, double noundef %98) #8
  br label %100

100:                                              ; preds = %86, %81
  br label %101

101:                                              ; preds = %100
  %102 = load i32, ptr %15, align 4
  %103 = add nsw i32 %102, 1
  store i32 %103, ptr %15, align 4
  br label %74, !llvm.loop !7

104:                                              ; preds = %74
  %105 = load ptr, ptr %7, align 8
  %106 = call i32 (ptr, ptr, ...) @fprintf(ptr noundef %105, ptr noundef @.str.1) #8
  br label %107

107:                                              ; preds = %104, %68
  br label %108

108:                                              ; preds = %107, %65
  %109 = load float, ptr %14, align 4
  %110 = fpext float %109 to double
  %111 = fmul double %110, 5.000000e-01
  %112 = fptrunc double %111 to float
  ret float %112
}