; Function Attrs: mustprogress nofree nounwind uwtable
define noundef float @_Z19print_and_integrateP8_IO_FILEifPKfS2_i(ptr noundef %0, i32 noundef %1, float noundef %2, ptr nocapture noundef readonly %3, ptr noundef readonly %4, i32 noundef %5) local_unnamed_addr #0 {
  %7 = icmp sgt i32 %1, 0
  br i1 %7, label %.lr.ph, label %._crit_edge

.lr.ph:                                           ; preds = %6
  %.not43 = icmp eq ptr %0, null
  br i1 %.not43, label %.lr.ph.split.us.preheader, label %.lr.ph.split

.lr.ph.split.us.preheader:                        ; preds = %.lr.ph
  %wide.trip.count68 = zext nneg i32 %1 to i64
  br label %.lr.ph.split.us

.lr.ph.split.us:                                  ; preds = %.lr.ph.split.us.preheader, %15
  %indvars.iv65 = phi i64 [ 0, %.lr.ph.split.us.preheader ], [ %indvars.iv.next66, %15 ]
  %.03445.us = phi float [ 0.000000e+00, %.lr.ph.split.us.preheader ], [ %.135.us, %15 ]
  %.not44.us = icmp eq i64 %indvars.iv65, 0
  br i1 %.not44.us, label %15, label %8

8:                                                ; preds = %.lr.ph.split.us
  %9 = getelementptr inbounds float, ptr %3, i64 %indvars.iv65
  %10 = load float, ptr %9, align 4
  %11 = getelementptr i8, ptr %9, i64 -4
  %12 = load float, ptr %11, align 4
  %13 = fadd float %10, %12
  %14 = tail call float @llvm.fmuladd.f32(float %2, float %13, float %.03445.us)
  br label %15

15:                                               ; preds = %8, %.lr.ph.split.us
  %.135.us = phi float [ %14, %8 ], [ %.03445.us, %.lr.ph.split.us ]
  %indvars.iv.next66 = add nuw nsw i64 %indvars.iv65, 1
  %exitcond69.not = icmp eq i64 %indvars.iv.next66, %wide.trip.count68
  br i1 %exitcond69.not, label %._crit_edge, label %.lr.ph.split.us, !llvm.loop !5

.lr.ph.split:                                     ; preds = %.lr.ph
  %16 = icmp eq i32 %5, 0
  %wide.trip.count63 = zext nneg i32 %1 to i64
  br i1 %16, label %.lr.ph.split.split.us, label %.lr.ph.split.split

.lr.ph.split.split.us:                            ; preds = %.lr.ph.split, %30
  %indvars.iv60 = phi i64 [ %indvars.iv.next61, %30 ], [ 0, %.lr.ph.split ]
  %.03445.us48 = phi float [ %.135.us50, %30 ], [ 0.000000e+00, %.lr.ph.split ]
  %17 = getelementptr inbounds float, ptr %3, i64 %indvars.iv60
  %18 = load float, ptr %17, align 4
  %19 = trunc nuw nsw i64 %indvars.iv60 to i32
  %20 = uitofp nneg i32 %19 to float
  %21 = fmul float %20, %2
  %22 = fpext float %21 to double
  %23 = fpext float %18 to double
  %24 = tail call i32 (ptr, ptr, ...) @fprintf(ptr noundef nonnull %0, ptr noundef nonnull @.str, double noundef %22, double noundef %23) #12
  %.not44.us49 = icmp eq i64 %indvars.iv60, 0
  br i1 %.not44.us49, label %30, label %25

25:                                               ; preds = %.lr.ph.split.split.us
  %26 = getelementptr i8, ptr %17, i64 -4
  %27 = load float, ptr %26, align 4
  %28 = fadd float %18, %27
  %29 = tail call float @llvm.fmuladd.f32(float %2, float %28, float %.03445.us48)
  br label %30

30:                                               ; preds = %25, %.lr.ph.split.split.us
  %.135.us50 = phi float [ %29, %25 ], [ %.03445.us48, %.lr.ph.split.split.us ]
  %indvars.iv.next61 = add nuw nsw i64 %indvars.iv60, 1
  %exitcond64.not = icmp eq i64 %indvars.iv.next61, %wide.trip.count63
  br i1 %exitcond64.not, label %._crit_edge, label %.lr.ph.split.split.us, !llvm.loop !5

.lr.ph.split.split:                               ; preds = %.lr.ph.split, %48
  %indvars.iv = phi i64 [ %indvars.iv.next, %48 ], [ 0, %.lr.ph.split ]
  %.03445 = phi float [ %.135, %48 ], [ 0.000000e+00, %.lr.ph.split ]
  %31 = getelementptr inbounds float, ptr %3, i64 %indvars.iv
  %32 = load float, ptr %31, align 4
  %33 = trunc nuw nsw i64 %indvars.iv to i32
  %34 = srem i32 %33, %5
  %35 = icmp eq i32 %34, 0
  br i1 %35, label %36, label %42

36:                                               ; preds = %.lr.ph.split.split
  %37 = uitofp nneg i32 %33 to float
  %38 = fmul float %37, %2
  %39 = fpext float %38 to double
  %40 = fpext float %32 to double
  %41 = tail call i32 (ptr, ptr, ...) @fprintf(ptr noundef nonnull %0, ptr noundef nonnull @.str, double noundef %39, double noundef %40) #12
  br label %42

42:                                               ; preds = %36, %.lr.ph.split.split
  %.not44 = icmp eq i64 %indvars.iv, 0
  br i1 %.not44, label %48, label %43

43:                                               ; preds = %42
  %44 = getelementptr i8, ptr %31, i64 -4
  %45 = load float, ptr %44, align 4
  %46 = fadd float %32, %45
  %47 = tail call float @llvm.fmuladd.f32(float %2, float %46, float %.03445)
  br label %48

48:                                               ; preds = %42, %43
  %.135 = phi float [ %47, %43 ], [ %.03445, %42 ]
  %indvars.iv.next = add nuw nsw i64 %indvars.iv, 1
  %exitcond.not = icmp eq i64 %indvars.iv.next, %wide.trip.count63
  br i1 %exitcond.not, label %._crit_edge, label %.lr.ph.split.split, !llvm.loop !5

._crit_edge:                                      ; preds = %48, %30, %15, %6
  %.034.lcssa = phi float [ 0.000000e+00, %6 ], [ %.135.us, %15 ], [ %.135.us50, %30 ], [ %.135, %48 ]
  %.not = icmp eq ptr %0, null
  br i1 %.not, label %73, label %49

49:                                               ; preds = %._crit_edge
  %50 = tail call i64 @fwrite(ptr nonnull @.str.1, i64 2, i64 1, ptr nonnull %0)
  %.not42 = icmp eq ptr %4, null
  br i1 %.not42, label %73, label %.preheader

.preheader:                                       ; preds = %49
  br i1 %7, label %.lr.ph54, label %._crit_edge55

.lr.ph54:                                         ; preds = %.preheader
  %51 = icmp eq i32 %5, 0
  %wide.trip.count78 = zext nneg i32 %1 to i64
  br i1 %51, label %.lr.ph54.split.us, label %.lr.ph54.split

.lr.ph54.split.us:                                ; preds = %.lr.ph54, %.lr.ph54.split.us
  %indvars.iv75 = phi i64 [ %indvars.iv.next76, %.lr.ph54.split.us ], [ 0, %.lr.ph54 ]
  %52 = trunc nuw nsw i64 %indvars.iv75 to i32
  %53 = uitofp nneg i32 %52 to float
  %54 = fmul float %53, %2
  %55 = fpext float %54 to double
  %56 = getelementptr inbounds float, ptr %4, i64 %indvars.iv75
  %57 = load float, ptr %56, align 4
  %58 = fpext float %57 to double
  %59 = tail call i32 (ptr, ptr, ...) @fprintf(ptr noundef nonnull %0, ptr noundef nonnull @.str, double noundef %55, double noundef %58) #12
  %indvars.iv.next76 = add nuw nsw i64 %indvars.iv75, 1
  %exitcond79.not = icmp eq i64 %indvars.iv.next76, %wide.trip.count78
  br i1 %exitcond79.not, label %._crit_edge55, label %.lr.ph54.split.us, !llvm.loop !7

.lr.ph54.split:                                   ; preds = %.lr.ph54, %71
  %indvars.iv70 = phi i64 [ %indvars.iv.next71, %71 ], [ 0, %.lr.ph54 ]
  %60 = trunc nuw nsw i64 %indvars.iv70 to i32
  %61 = srem i32 %60, %5
  %62 = icmp eq i32 %61, 0
  br i1 %62, label %63, label %71

63:                                               ; preds = %.lr.ph54.split
  %64 = uitofp nneg i32 %60 to float
  %65 = fmul float %64, %2
  %66 = fpext float %65 to double
  %67 = getelementptr inbounds float, ptr %4, i64 %indvars.iv70
  %68 = load float, ptr %67, align 4
  %69 = fpext float %68 to double
  %70 = tail call i32 (ptr, ptr, ...) @fprintf(ptr noundef nonnull %0, ptr noundef nonnull @.str, double noundef %66, double noundef %69) #12
  br label %71

71:                                               ; preds = %.lr.ph54.split, %63
  %indvars.iv.next71 = add nuw nsw i64 %indvars.iv70, 1
  %exitcond74.not = icmp eq i64 %indvars.iv.next71, %wide.trip.count78
  br i1 %exitcond74.not, label %._crit_edge55, label %.lr.ph54.split, !llvm.loop !7

._crit_edge55:                                    ; preds = %71, %.lr.ph54.split.us, %.preheader
  %72 = tail call i64 @fwrite(ptr nonnull @.str.1, i64 2, i64 1, ptr nonnull %0)
  br label %73

73:                                               ; preds = %49, %._crit_edge55, %._crit_edge
  %74 = fmul float %.034.lcssa, 5.000000e-01
  ret float %74
}